; Function Attrs: mustprogress uwtable
define void @_ZN8QuantLib21FdHestonBarrierEngineC2ERKN5boost10shared_ptrINS_11HestonModelEEESt6vectorINS2_INS_8DividendEEESaIS9_EEmmmmRKNS_13FdmSchemeDescENS2_INS_21LocalVolTermStructureEEEd(ptr noundef nonnull align 8 dereferenceable(480) %this, ptr noundef nonnull align 8 dereferenceable(16) %model, ptr nocapture noundef %dividends, i64 noundef %tGrid, i64 noundef %xGrid, i64 noundef %vGrid, i64 noundef %dampingSteps, ptr nocapture noundef nonnull readonly align 8 dereferenceable(24) %schemeDesc, ptr nocapture noundef %leverageFct, double noundef %mixingFactor) unnamed_addr #9 align 2 {
entry:
  tail call void @_ZN8QuantLib18GenericModelEngineINS_11HestonModelENS_13BarrierOption9argumentsENS_14OneAssetOption7resultsEEC2ERKN5boost10shared_ptrIS1_EE(ptr noundef nonnull align 8 dereferenceable(376) %this, ptr noundef nonnull align 8 dereferenceable(16) %model)
  store ptr getelementptr inbounds inrange(-16, 56) (i8, ptr @_ZTVN8QuantLib21FdHestonBarrierEngineE, i64 16), ptr %this, align 8, !tbaa !33
  %add.ptr = getelementptr inbounds i8, ptr %this, i64 56
  store ptr getelementptr inbounds inrange(-16, 32) (i8, ptr @_ZTVN8QuantLib21FdHestonBarrierEngineE, i64 88), ptr %add.ptr, align 8, !tbaa !33
  %dividends_ = getelementptr inbounds nuw i8, ptr %this, i64 376
  %0 = load ptr, ptr %dividends, align 8, !tbaa !100
  store ptr %0, ptr %dividends_, align 8, !tbaa !100
  %_M_finish.i.i.i.i = getelementptr inbounds nuw i8, ptr %this, i64 384
  %_M_finish3.i.i.i.i = getelementptr inbounds nuw i8, ptr %dividends, i64 8
  %1 = load ptr, ptr %_M_finish3.i.i.i.i, align 8, !tbaa !101
  store ptr %1, ptr %_M_finish.i.i.i.i, align 8, !tbaa !101
  %_M_end_of_storage.i.i.i.i = getelementptr inbounds nuw i8, ptr %this, i64 392
  %_M_end_of_storage4.i.i.i.i = getelementptr inbounds nuw i8, ptr %dividends, i64 16
  %2 = load ptr, ptr %_M_end_of_storage4.i.i.i.i, align 8, !tbaa !102
  store ptr %2, ptr %_M_end_of_storage.i.i.i.i, align 8, !tbaa !102
  tail call void @llvm.memset.p0.i64(ptr noundef nonnull align 8 dereferenceable(24) %dividends, i8 0, i64 24, i1 false)
  %tGrid_ = getelementptr inbounds nuw i8, ptr %this, i64 400
  store i64 %tGrid, ptr %tGrid_, align 8, !tbaa !48
  %xGrid_ = getelementptr inbounds nuw i8, ptr %this, i64 408
  store i64 %xGrid, ptr %xGrid_, align 8, !tbaa !83
  %vGrid_ = getelementptr inbounds nuw i8, ptr %this, i64 416
  store i64 %vGrid, ptr %vGrid_, align 8, !tbaa !84
  %dampingSteps_ = getelementptr inbounds nuw i8, ptr %this, i64 424
  store i64 %dampingSteps, ptr %dampingSteps_, align 8, !tbaa !85
  %schemeDesc_ = getelementptr inbounds nuw i8, ptr %this, i64 432
  tail call void @llvm.memcpy.p0.p0.i64(ptr noundef nonnull align 8 dereferenceable(24) %schemeDesc_, ptr noundef nonnull align 8 dereferenceable(24) %schemeDesc, i64 24, i1 false), !tbaa.struct !86
  %leverageFct_ = getelementptr inbounds nuw i8, ptr %this, i64 456
  %3 = load ptr, ptr %leverageFct, align 8, !tbaa !89
  store ptr %3, ptr %leverageFct_, align 8, !tbaa !89
  %pn.i = getelementptr inbounds nuw i8, ptr %this, i64 464
  %pn3.i = getelementptr inbounds nuw i8, ptr %leverageFct, i64 8
  %4 = load ptr, ptr %pn3.i, align 8, !tbaa !43
  store ptr %4, ptr %pn.i, align 8, !tbaa !43
  tail call void @llvm.memset.p0.i64(ptr noundef nonnull align 8 dereferenceable(16) %leverageFct, i8 0, i64 16, i1 false)
  %mixingFactor_ = getelementptr inbounds nuw i8, ptr %this, i64 472
  store double %mixingFactor, ptr %mixingFactor_, align 8, !tbaa !90
  ret void
}